; Function Attrs: mustprogress uwtable
define internal noundef range(i32 0, 2) i32 @_ZL13VerifySucceedP17x509_store_ctx_stPv(ptr noundef %0, ptr readnone captures(none) %1) #10 {
  %3 = alloca ptr, align 8
  %4 = alloca i64, align 8
  %5 = tail call i32 @SSL_get_ex_data_X509_STORE_CTX_idx()
  %6 = tail call ptr @X509_STORE_CTX_get_ex_data(ptr noundef %0, i32 noundef %5)
  %7 = load i32, ptr @_ZL14g_config_index, align 4, !tbaa !6
  %8 = tail call noundef ptr @SSL_get_ex_data(ptr noundef %6, i32 noundef %7)
  %9 = getelementptr inbounds nuw i8, ptr %8, i64 640
  %10 = load i64, ptr %9, align 8, !tbaa !14
  %11 = icmp eq i64 %10, 0
  br i1 %11, label %17, label %12

12:                                               ; preds = %2
  call void @llvm.lifetime.start.p0(i64 8, ptr nonnull %3) #28
  call void @llvm.lifetime.start.p0(i64 8, ptr nonnull %4) #28
  call void @SSL_get0_ocsp_response(ptr noundef %6, ptr noundef nonnull %3, ptr noundef nonnull %4)
  %13 = load i64, ptr %4, align 8, !tbaa !144
  %.not = icmp eq i64 %13, 0
  br i1 %.not, label %14, label %.sink.split

14:                                               ; preds = %12
  %15 = load ptr, ptr @stderr, align 8, !tbaa !33
  %16 = call i64 @fwrite(ptr nonnull @.str.18, i64 47, i64 1, ptr %15) #32
  br label %.sink.split

.sink.split:                                      ; preds = %12, %14
  %.1.ph = phi i32 [ 0, %14 ], [ 1, %12 ]
  call void @llvm.lifetime.end.p0(i64 8, ptr nonnull %4) #28
  call void @llvm.lifetime.end.p0(i64 8, ptr nonnull %3) #28
  br label %17

17:                                               ; preds = %.sink.split, %2
  %.1 = phi i32 [ 1, %2 ], [ %.1.ph, %.sink.split ]
  ret i32 %.1
}